target datalayout = "e-m:e-p270:32:32-p271:32:32-p272:64:64-i64:64-i128:128-f80:128-n8:16:32:64-S128"
target triple = "x86_64-pc-linux-gnu"

%struct.Rwr_Man_t_ = type { i32, ptr, ptr, ptr, ptr, ptr, ptr, ptr, ptr, ptr, ptr, ptr, i32, i32, i32, i32, i32, ptr, ptr, ptr, ptr, ptr, i32, i32, i32, i32, i32, [222 x i32], i32, i32, i32, i64, i64, i64, i64, i64, i64, i64 }
%struct.Vec_Ptr_t_ = type { i32, i32, ptr }
%struct.Rwr_Node_t_ = type <{ i32, i32, i16, i16, i16, i32, [6 x i8], ptr, ptr, ptr }>
%struct.timespec = type { i64, i64 }

@.str.8 = private unnamed_addr constant [5 x i8] c"%s =\00", align 1
@.str.10 = private unnamed_addr constant [11 x i8] c"%9.2f sec\0A\00", align 1
@.str.11 = private unnamed_addr constant [51 x i8] c"The number of classes = %d. Canonical nodes = %d.\0A\00", align 1
@.str.12 = private unnamed_addr constant [35 x i8] c"The number of nodes loaded = %d.  \00", align 1
@.str.13 = private unnamed_addr constant [8 x i8] c"Loading\00", align 1

; Function Attrs: inlinehint nounwind uwtable
define internal ptr @Rwr_NotCond(ptr noundef %0, i32 noundef %1) #4 {
  %3 = alloca ptr, align 8
  %4 = alloca i32, align 4
  store ptr %0, ptr %3, align 8, !tbaa !28
  store i32 %1, ptr %4, align 4, !tbaa !23
  %5 = load ptr, ptr %3, align 8, !tbaa !28
  %6 = ptrtoint ptr %5 to i64
  %7 = load i32, ptr %4, align 4, !tbaa !23
  %8 = sext i32 %7 to i64
  %9 = xor i64 %6, %8
  %10 = inttoptr i64 %9 to ptr
  ret ptr %10
}

; Function Attrs: inlinehint nounwind uwtable
define internal i32 @Abc_MaxInt(i32 noundef %0, i32 noundef %1) #4 {
  %3 = alloca i32, align 4
  %4 = alloca i32, align 4
  store i32 %0, ptr %3, align 4, !tbaa !23
  store i32 %1, ptr %4, align 4, !tbaa !23
  %5 = load i32, ptr %3, align 4, !tbaa !23
  %6 = load i32, ptr %4, align 4, !tbaa !23
  %7 = icmp sgt i32 %5, %6
  br i1 %7, label %8, label %10

8:                                                ; preds = %2
  %9 = load i32, ptr %3, align 4, !tbaa !23
  br label %12

10:                                               ; preds = %2
  %11 = load i32, ptr %4, align 4, !tbaa !23
  br label %12

12:                                               ; preds = %10, %8
  %13 = phi i32 [ %9, %8 ], [ %11, %10 ]
  ret i32 %13
}

; Function Attrs: inlinehint nounwind uwtable
define internal i64 @Abc_Clock() #4 {
  %1 = alloca i64, align 8
  %2 = alloca %struct.timespec, align 8
  %3 = alloca i32, align 4
  %4 = alloca i64, align 8
  call void @llvm.lifetime.start.p0(i64 16, ptr %2) #9
  %5 = call i32 @clock_gettime(i32 noundef 1, ptr noundef %2) #9
  %6 = icmp slt i32 %5, 0
  br i1 %6, label %7, label %8

7:                                                ; preds = %0
  store i64 -1, ptr %1, align 8
  store i32 1, ptr %3, align 4
  br label %19

8:                                                ; preds = %0
  call void @llvm.lifetime.start.p0(i64 8, ptr %4) #9
  %9 = getelementptr inbounds nuw %struct.timespec, ptr %2, i32 0, i32 0
  %10 = load i64, ptr %9, align 8, !tbaa !51
  %11 = mul nsw i64 %10, 1000000
  store i64 %11, ptr %4, align 8, !tbaa !8
  %12 = getelementptr inbounds nuw %struct.timespec, ptr %2, i32 0, i32 1
  %13 = load i64, ptr %12, align 8, !tbaa !53
  %14 = mul nsw i64 %13, 1000000
  %15 = sdiv i64 %14, 1000000000
  %16 = load i64, ptr %4, align 8, !tbaa !8
  %17 = add nsw i64 %16, %15
  store i64 %17, ptr %4, align 8, !tbaa !8
  %18 = load i64, ptr %4, align 8, !tbaa !8
  store i64 %18, ptr %1, align 8
  store i32 1, ptr %3, align 4
  call void @llvm.lifetime.end.p0(i64 8, ptr %4) #9
  br label %19

19:                                               ; preds = %8, %7
  call void @llvm.lifetime.end.p0(i64 16, ptr %2) #9
  %20 = load i64, ptr %1, align 8
  ret i64 %20
}

; Function Attrs: nounwind uwtable
define void @Rwr_ManLoadFromArray(ptr noundef %0, i32 noundef %1) #0 {
  %3 = alloca ptr, align 8
  %4 = alloca i32, align 4
  %5 = alloca ptr, align 8
  %6 = alloca ptr, align 8
  %7 = alloca ptr, align 8
  %8 = alloca i32, align 4
  %9 = alloca i32, align 4
  %10 = alloca i32, align 4
  %11 = alloca i32, align 4
  %12 = alloca i32, align 4
  %13 = alloca i32, align 4
  %14 = alloca i32, align 4
  %15 = alloca i64, align 8
  store ptr %0, ptr %3, align 8, !tbaa !3
  store i32 %1, ptr %4, align 4, !tbaa !23
  call void @llvm.lifetime.start.p0(i64 8, ptr %5) #9
  store ptr @s_RwtAigSubgraphs, ptr %5, align 8, !tbaa !38
  call void @llvm.lifetime.start.p0(i64 8, ptr %6) #9
  call void @llvm.lifetime.start.p0(i64 8, ptr %7) #9
  call void @llvm.lifetime.start.p0(i64 4, ptr %8) #9
  call void @llvm.lifetime.start.p0(i64 4, ptr %9) #9
  call void @llvm.lifetime.start.p0(i64 4, ptr %10) #9
  call void @llvm.lifetime.start.p0(i64 4, ptr %11) #9
  call void @llvm.lifetime.start.p0(i64 4, ptr %12) #9
  call void @llvm.lifetime.start.p0(i64 4, ptr %13) #9
  call void @llvm.lifetime.start.p0(i64 4, ptr %14) #9
  call void @llvm.lifetime.start.p0(i64 8, ptr %15) #9
  %16 = call i64 @Abc_Clock()
  store i64 %16, ptr %15, align 8, !tbaa !8
  store i32 0, ptr %14, align 4, !tbaa !23
  br label %17

17:                                               ; preds = %99, %2
  %18 = load ptr, ptr %5, align 8, !tbaa !38
  %19 = load i32, ptr %14, align 4, !tbaa !23
  %20 = mul nsw i32 2, %19
  %21 = add nsw i32 %20, 0
  %22 = sext i32 %21 to i64
  %23 = getelementptr inbounds i16, ptr %18, i64 %22
  %24 = load i16, ptr %23, align 2, !tbaa !39
  %25 = zext i16 %24 to i32
  store i32 %25, ptr %8, align 4, !tbaa !23
  %26 = load ptr, ptr %5, align 8, !tbaa !38
  %27 = load i32, ptr %14, align 4, !tbaa !23
  %28 = mul nsw i32 2, %27
  %29 = add nsw i32 %28, 1
  %30 = sext i32 %29 to i64
  %31 = getelementptr inbounds i16, ptr %26, i64 %30
  %32 = load i16, ptr %31, align 2, !tbaa !39
  %33 = zext i16 %32 to i32
  store i32 %33, ptr %9, align 4, !tbaa !23
  %34 = load i32, ptr %8, align 4, !tbaa !23
  %35 = icmp eq i32 %34, 0
  br i1 %35, label %36, label %40

36:                                               ; preds = %17
  %37 = load i32, ptr %9, align 4, !tbaa !23
  %38 = icmp eq i32 %37, 0
  br i1 %38, label %39, label %40

39:                                               ; preds = %36
  br label %102

40:                                               ; preds = %36, %17
  %41 = load i32, ptr %8, align 4, !tbaa !23
  %42 = and i32 %41, 1
  store i32 %42, ptr %13, align 4, !tbaa !23
  %43 = load i32, ptr %8, align 4, !tbaa !23
  %44 = lshr i32 %43, 1
  store i32 %44, ptr %8, align 4, !tbaa !23
  %45 = load ptr, ptr %3, align 8, !tbaa !3
  %46 = getelementptr inbounds nuw %struct.Rwr_Man_t_, ptr %45, i32 0, i32 8
  %47 = load ptr, ptr %46, align 8, !tbaa !10
  %48 = getelementptr inbounds nuw %struct.Vec_Ptr_t_, ptr %47, i32 0, i32 2
  %49 = load ptr, ptr %48, align 8, !tbaa !26
  %50 = load i32, ptr %8, align 4, !tbaa !23
  %51 = lshr i32 %50, 1
  %52 = zext i32 %51 to i64
  %53 = getelementptr inbounds nuw ptr, ptr %49, i64 %52
  %54 = load ptr, ptr %53, align 8, !tbaa !27
  store ptr %54, ptr %6, align 8, !tbaa !28
  %55 = load ptr, ptr %3, align 8, !tbaa !3
  %56 = getelementptr inbounds nuw %struct.Rwr_Man_t_, ptr %55, i32 0, i32 8
  %57 = load ptr, ptr %56, align 8, !tbaa !10
  %58 = getelementptr inbounds nuw %struct.Vec_Ptr_t_, ptr %57, i32 0, i32 2
  %59 = load ptr, ptr %58, align 8, !tbaa !26
  %60 = load i32, ptr %9, align 4, !tbaa !23
  %61 = lshr i32 %60, 1
  %62 = zext i32 %61 to i64
  %63 = getelementptr inbounds nuw ptr, ptr %59, i64 %62
  %64 = load ptr, ptr %63, align 8, !tbaa !27
  store ptr %64, ptr %7, align 8, !tbaa !28
  %65 = load ptr, ptr %6, align 8, !tbaa !28
  %66 = getelementptr inbounds nuw %struct.Rwr_Node_t_, ptr %65, i32 0, i32 5
  %67 = load i32, ptr %66, align 2
  %68 = lshr i32 %67, 24
  %69 = and i32 %68, 63
  %70 = load ptr, ptr %7, align 8, !tbaa !28
  %71 = getelementptr inbounds nuw %struct.Rwr_Node_t_, ptr %70, i32 0, i32 5
  %72 = load i32, ptr %71, align 2
  %73 = lshr i32 %72, 24
  %74 = and i32 %73, 63
  %75 = call i32 @Abc_MaxInt(i32 noundef %69, i32 noundef %74)
  %76 = add nsw i32 1, %75
  store i32 %76, ptr %10, align 4, !tbaa !23
  %77 = load ptr, ptr %3, align 8, !tbaa !3
  %78 = load ptr, ptr %6, align 8, !tbaa !28
  %79 = load ptr, ptr %7, align 8, !tbaa !28
  %80 = call i32 @Rwr_ManNodeVolume(ptr noundef %77, ptr noundef %78, ptr noundef %79)
  %81 = add nsw i32 1, %80
  store i32 %81, ptr %11, align 4, !tbaa !23
  %82 = load ptr, ptr %6, align 8, !tbaa !28
  %83 = load i32, ptr %8, align 4, !tbaa !23
  %84 = and i32 %83, 1
  %85 = call ptr @Rwr_NotCond(ptr noundef %82, i32 noundef %84)
  store ptr %85, ptr %6, align 8, !tbaa !28
  %86 = load ptr, ptr %7, align 8, !tbaa !28
  %87 = load i32, ptr %9, align 4, !tbaa !23
  %88 = and i32 %87, 1
  %89 = call ptr @Rwr_NotCond(ptr noundef %86, i32 noundef %88)
  store ptr %89, ptr %7, align 8, !tbaa !28
  %90 = load ptr, ptr %3, align 8, !tbaa !3
  %91 = load ptr, ptr %6, align 8, !tbaa !28
  %92 = load ptr, ptr %7, align 8, !tbaa !28
  %93 = load i32, ptr %13, align 4, !tbaa !23
  %94 = load i32, ptr %10, align 4, !tbaa !23
  %95 = load i32, ptr %11, align 4, !tbaa !23
  %96 = load i32, ptr %13, align 4, !tbaa !23
  %97 = add nsw i32 %95, %96
  %98 = call ptr @Rwr_ManAddNode(ptr noundef %90, ptr noundef %91, ptr noundef %92, i32 noundef %93, i32 noundef %94, i32 noundef %97)
  br label %99

99:                                               ; preds = %40
  %100 = load i32, ptr %14, align 4, !tbaa !23
  %101 = add nsw i32 %100, 1
  store i32 %101, ptr %14, align 4, !tbaa !23
  br label %17

102:                                              ; preds = %39
  %103 = load i32, ptr %14, align 4, !tbaa !23
  %104 = sub nsw i32 %103, 1
  store i32 %104, ptr %12, align 4, !tbaa !23
  %105 = load i32, ptr %4, align 4, !tbaa !23
  %106 = icmp ne i32 %105, 0
  br i1 %106, label %107, label %123

107:                                              ; preds = %102
  %108 = load ptr, ptr %3, align 8, !tbaa !3
  %109 = getelementptr inbounds nuw %struct.Rwr_Man_t_, ptr %108, i32 0, i32 15
  %110 = load i32, ptr %109, align 4, !tbaa !40
  %111 = load ptr, ptr %3, align 8, !tbaa !3
  %112 = getelementptr inbounds nuw %struct.Rwr_Man_t_, ptr %111, i32 0, i32 14
  %113 = load i32, ptr %112, align 8, !tbaa !41
  %114 = call i32 (ptr, ...) @printf(ptr noundef @.str.11, i32 noundef %110, i32 noundef %113)
  %115 = load i32, ptr %12, align 4, !tbaa !23
  %116 = call i32 (ptr, ...) @printf(ptr noundef @.str.12, i32 noundef %115)
  call void (i32, ptr, ...) @Abc_Print(i32 noundef 1, ptr noundef @.str.8, ptr noundef @.str.13)
  %117 = call i64 @Abc_Clock()
  %118 = load i64, ptr %15, align 8, !tbaa !8
  %119 = sub nsw i64 %117, %118
  %120 = sitofp i64 %119 to double
  %121 = fmul double 1.000000e+00, %120
  %122 = fdiv double %121, 1.000000e+06
  call void (i32, ptr, ...) @Abc_Print(i32 noundef 1, ptr noundef @.str.10, double noundef %122)
  br label %123

123:                                              ; preds = %107, %102
  call void @llvm.lifetime.end.p0(i64 8, ptr %15) #9
  call void @llvm.lifetime.end.p0(i64 4, ptr %14) #9
  call void @llvm.lifetime.end.p0(i64 4, ptr %13) #9
  call void @llvm.lifetime.end.p0(i64 4, ptr %12) #9
  call void @llvm.lifetime.end.p0(i64 4, ptr %11) #9
  call void @llvm.lifetime.end.p0(i64 4, ptr %10) #9
  call void @llvm.lifetime.end.p0(i64 4, ptr %9) #9
  call void @llvm.lifetime.end.p0(i64 4, ptr %8) #9
  call void @llvm.lifetime.end.p0(i64 8, ptr %7) #9
  call void @llvm.lifetime.end.p0(i64 8, ptr %6) #9
  call void @llvm.lifetime.end.p0(i64 8, ptr %5) #9
  ret void
}