; Function Attrs: nounwind uwtable
define void @Rwr_ManLoadFromArray(ptr noundef %0, i32 noundef %1) local_unnamed_addr #0 {
  %3 = alloca %struct.timespec, align 8
  %4 = alloca %struct.timespec, align 8
  call void @llvm.lifetime.start.p0(i64 16, ptr nonnull %4) #15
  %5 = call i32 @clock_gettime(i32 noundef 1, ptr noundef nonnull %4) #15
  %6 = icmp slt i32 %5, 0
  br i1 %6, label %Abc_Clock.exit, label %7

7:                                                ; preds = %2
  %8 = load i64, ptr %4, align 8, !tbaa !3
  %.neg37 = mul i64 %8, -1000000
  %9 = getelementptr inbounds nuw i8, ptr %4, i64 8
  %10 = load i64, ptr %9, align 8, !tbaa !8
  %.neg = sdiv i64 %10, -1000
  %.neg38 = add i64 %.neg, %.neg37
  br label %Abc_Clock.exit

Abc_Clock.exit:                                   ; preds = %2, %7
  %.0.i.neg = phi i64 [ %.neg38, %7 ], [ 1, %2 ]
  call void @llvm.lifetime.end.p0(i64 16, ptr nonnull %4) #15
  %11 = getelementptr inbounds nuw i8, ptr %0, i64 64
  br label %12

12:                                               ; preds = %Abc_Clock.exit, %12
  %indvars.iv = phi i64 [ 0, %Abc_Clock.exit ], [ %indvars.iv.next, %12 ]
  %13 = phi i16 [ 2, %Abc_Clock.exit ], [ %59, %12 ]
  %14 = phi i16 [ 8, %Abc_Clock.exit ], [ %56, %12 ]
  %15 = zext i16 %13 to i32
  %16 = zext i16 %14 to i32
  %17 = and i32 %16, 1
  %18 = lshr i32 %16, 1
  %19 = load ptr, ptr %11, align 8, !tbaa !9
  %20 = getelementptr inbounds nuw i8, ptr %19, i64 8
  %21 = load ptr, ptr %20, align 8, !tbaa !23
  %22 = lshr i32 %16, 2
  %23 = zext nneg i32 %22 to i64
  %24 = getelementptr inbounds nuw ptr, ptr %21, i64 %23
  %25 = load ptr, ptr %24, align 8, !tbaa !24
  %26 = lshr i32 %15, 1
  %27 = zext nneg i32 %26 to i64
  %28 = getelementptr inbounds nuw ptr, ptr %21, i64 %27
  %29 = load ptr, ptr %28, align 8, !tbaa !24
  %30 = getelementptr inbounds nuw i8, ptr %25, i64 14
  %31 = load i32, ptr %30, align 2
  %32 = lshr i32 %31, 24
  %33 = and i32 %32, 63
  %34 = getelementptr inbounds nuw i8, ptr %29, i64 14
  %35 = load i32, ptr %34, align 2
  %36 = lshr i32 %35, 24
  %37 = and i32 %36, 63
  %38 = call range(i32 0, 64) i32 @llvm.umax.i32(i32 range(i32 0, 64) %33, i32 range(i32 0, 64) %37)
  %39 = add nuw nsw i32 %38, 1
  %40 = call i32 @Rwr_ManNodeVolume(ptr noundef %0, ptr noundef %25, ptr noundef %29) #15
  %41 = and i32 %18, 1
  %42 = ptrtoint ptr %25 to i64
  %43 = zext nneg i32 %41 to i64
  %44 = xor i64 %42, %43
  %45 = inttoptr i64 %44 to ptr
  %46 = and i32 %15, 1
  %47 = ptrtoint ptr %29 to i64
  %48 = zext nneg i32 %46 to i64
  %49 = xor i64 %47, %48
  %50 = inttoptr i64 %49 to ptr
  %51 = add nuw nsw i32 %17, 1
  %52 = add i32 %51, %40
  %53 = call ptr @Rwr_ManAddNode(ptr noundef %0, ptr noundef %45, ptr noundef %50, i32 noundef %17, i32 noundef %39, i32 noundef %52) #15
  %indvars.iv.next = add nuw nsw i64 %indvars.iv, 1
  %54 = shl nuw nsw i64 %indvars.iv.next, 1
  %55 = getelementptr inbounds nuw i16, ptr @s_RwtAigSubgraphs, i64 %54
  %56 = load i16, ptr %55, align 4, !tbaa !39
  %57 = or disjoint i64 %54, 1
  %58 = getelementptr inbounds nuw i16, ptr @s_RwtAigSubgraphs, i64 %57
  %59 = load i16, ptr %58, align 2, !tbaa !39
  %60 = icmp eq i16 %56, 0
  %61 = icmp eq i16 %59, 0
  %or.cond = select i1 %60, i1 %61, i1 false
  br i1 %or.cond, label %62, label %12

62:                                               ; preds = %12
  %.not = icmp eq i32 %1, 0
  br i1 %.not, label %83, label %63

63:                                               ; preds = %62
  %64 = trunc nuw nsw i64 %indvars.iv to i32
  %65 = getelementptr inbounds nuw i8, ptr %0, i64 108
  %66 = load i32, ptr %65, align 4, !tbaa !40
  %67 = getelementptr inbounds nuw i8, ptr %0, i64 104
  %68 = load i32, ptr %67, align 8, !tbaa !41
  %69 = call i32 (ptr, ...) @printf(ptr noundef nonnull dereferenceable(1) @.str.11, i32 noundef %66, i32 noundef %68)
  %70 = call i32 (ptr, ...) @printf(ptr noundef nonnull dereferenceable(1) @.str.12, i32 noundef %64)
  call void (i32, ptr, ...) @Abc_Print(i32 poison, ptr noundef nonnull @.str.8, ptr noundef nonnull @.str.13)
  call void @llvm.lifetime.start.p0(i64 16, ptr nonnull %3) #15
  %71 = call i32 @clock_gettime(i32 noundef 1, ptr noundef nonnull %3) #15
  %72 = icmp slt i32 %71, 0
  br i1 %72, label %Abc_Clock.exit36, label %73

73:                                               ; preds = %63
  %74 = load i64, ptr %3, align 8, !tbaa !3
  %75 = mul nsw i64 %74, 1000000
  %76 = getelementptr inbounds nuw i8, ptr %3, i64 8
  %77 = load i64, ptr %76, align 8, !tbaa !8
  %78 = sdiv i64 %77, 1000
  %79 = add nsw i64 %78, %75
  br label %Abc_Clock.exit36

Abc_Clock.exit36:                                 ; preds = %63, %73
  %.0.i35 = phi i64 [ %79, %73 ], [ -1, %63 ]
  call void @llvm.lifetime.end.p0(i64 16, ptr nonnull %3) #15
  %80 = add i64 %.0.i35, %.0.i.neg
  %81 = sitofp i64 %80 to double
  %82 = fdiv double %81, 1.000000e+06
  call void (i32, ptr, ...) @Abc_Print(i32 poison, ptr noundef nonnull @.str.10, double noundef %82)
  br label %83

83:                                               ; preds = %Abc_Clock.exit36, %62
  ret void
}